(icore
TaskList
p0
(dp1
S'tasks'
p2
(lp3
(icore
Task
p4
(dp5
S'due_date'
p6
S'8/20/12'
p7
sS'task'
p8
S'finish todo.py'
p9
sS'catagory'
p10
S'programming'
p11
sba(icore
Task
p12
(dp13
g6
S''
p14
sg8
S'AP Physics Exam Study stuff'
p15
sg10
S'school'
p16
sbasS'visualizer'
p17
(icore
TaskListVisualizer
p18
(dp19
S'task_list'
p20
g0
sbsb.